ccopy_reg
_reconstructor
p1
(csklearn.linear_model.base
LinearRegression
p2
c__builtin__
object
p3
NtRp4
(dp5
S'normalize'
p6
I00
sS'n_jobs'
p7
I1
sS'rank_'
p8
I4
sS'fit_intercept'
p9
I01
sS'_residues'
p10
cnumpy.core.multiarray
scalar
p11
(cnumpy
dtype
p12
(S'f8'
I0
I1
tRp13
(I3
S'<'
NNNI-1
I-1
I0
tbS'\xb8Y\x087\xf1uFA'
tRp14
sS'coef_'
p15
cnumpy.core.multiarray
_reconstruct
p16
(cnumpy
ndarray
p17
(I0
tS'b'
tRp18
(I1
(I4
tg13
I00
S'd}Z\x8efFh@\x04\xf1\xaa\xe2\xcdU\xf0\xbf\tVn\xa1O\xe2\xda?<\x0f\xbd|\ry\n\xc0'
tbsS'copy_X'
p19
I01
sS'intercept_'
p20
g11
(g13
S'\x83\xf9\x0c\x1d\xe1\xbav@'
tRp21
sS'singular_'
p22
g16
(g17
(I0
tS'b'
tRp23
(I1
(I4
tg13
I00
S'\xe2u\xec\x84\xa9\x80Q@\xcd\x1c\xd9\x1c\xe3{I@\xdfu\x1f\x0eq.D@\x9d\xb4e\x13v\xa3=@'
tbsb.